; Function Attrs: mustprogress uwtable
define noundef zeroext i1 @_ZN25VarianceShadowMappingBlur5setupEv(ptr noundef nonnull align 8 dereferenceable(80) %0) unnamed_addr #1 align 2 {
  %2 = alloca %class.QMessageLogger, align 8
  %3 = alloca [3 x i32], align 4
  %4 = load i8, ptr @__GLEW_EXT_framebuffer_object, align 1
  %.not = icmp eq i8 %4, 0
  br i1 %.not, label %5, label %8

5:                                                ; preds = %1
  store i32 2, ptr %2, align 8
  %6 = getelementptr inbounds i8, ptr %2, i64 4
  %7 = getelementptr inbounds i8, ptr %2, i64 24
  call void @llvm.memset.p0.i64(ptr noundef nonnull align 4 dereferenceable(20) %6, i8 0, i64 20, i1 false)
  store ptr @.str.12, ptr %7, align 8
  call void (ptr, ptr, ...) @_ZNK14QMessageLogger7warningEPKcz(ptr noundef nonnull align 8 dereferenceable(32) %2, ptr noundef nonnull @.str.20) #22
  br label %40

8:                                                ; preds = %1
  %9 = getelementptr inbounds i8, ptr %0, i64 8
  %10 = load i8, ptr %9, align 8
  %11 = and i8 %10, 1
  %.not2 = icmp eq i8 %11, 0
  br i1 %.not2, label %12, label %40

12:                                               ; preds = %8
  %13 = load ptr, ptr @__glewGenFramebuffers, align 8
  %14 = getelementptr inbounds i8, ptr %0, i64 20
  tail call void %13(i32 noundef 1, ptr noundef nonnull %14)
  %15 = load ptr, ptr @__glewBindFramebuffer, align 8
  %16 = load i32, ptr %14, align 4
  tail call void %15(i32 noundef 36160, i32 noundef %16)
  %17 = getelementptr inbounds i8, ptr %0, i64 28
  tail call void @_ZN14DecorateShader18genColorTextureEXTERjj(ptr noundef nonnull align 8 dereferenceable(24) %0, ptr noundef nonnull align 4 dereferenceable(4) %17, i32 noundef 36064)
  %18 = getelementptr inbounds i8, ptr %0, i64 60
  tail call void @_ZN14DecorateShader18genColorTextureEXTERjj(ptr noundef nonnull align 8 dereferenceable(24) %0, ptr noundef nonnull align 4 dereferenceable(4) %18, i32 noundef 36065)
  %19 = getelementptr inbounds i8, ptr %0, i64 64
  tail call void @_ZN14DecorateShader18genColorTextureEXTERjj(ptr noundef nonnull align 8 dereferenceable(24) %0, ptr noundef nonnull align 4 dereferenceable(4) %19, i32 noundef 36066)
  %20 = getelementptr inbounds i8, ptr %0, i64 44
  %21 = load ptr, ptr @__glewGenRenderbuffers, align 8
  tail call void %21(i32 noundef 1, ptr noundef nonnull %20)
  %22 = load ptr, ptr @__glewBindRenderbuffer, align 8
  %23 = load i32, ptr %20, align 4
  tail call void %22(i32 noundef 36161, i32 noundef %23)
  %24 = load ptr, ptr @__glewRenderbufferStorage, align 8
  %25 = getelementptr inbounds i8, ptr %0, i64 12
  %26 = load i32, ptr %25, align 4
  %27 = getelementptr inbounds i8, ptr %0, i64 16
  %28 = load i32, ptr %27, align 8
  tail call void %24(i32 noundef 36161, i32 noundef 6402, i32 noundef %26, i32 noundef %28)
  %29 = load ptr, ptr @__glewFramebufferRenderbuffer, align 8
  %30 = load i32, ptr %20, align 4
  tail call void %29(i32 noundef 36160, i32 noundef 36096, i32 noundef 36161, i32 noundef %30)
  call void @llvm.memcpy.p0.p0.i64(ptr noundef nonnull align 4 dereferenceable(12) %3, ptr noundef nonnull align 4 dereferenceable(12) @__const._ZN25VarianceShadowMappingBlur5setupEv.drawBuffers, i64 12, i1 false)
  %31 = load ptr, ptr @__glewDrawBuffersARB, align 8
  call void %31(i32 noundef 3, ptr noundef nonnull %3)
  %32 = load ptr, ptr @__glewCheckFramebufferStatus, align 8
  %33 = call i32 %32(i32 noundef 36160)
  %34 = icmp eq i32 %33, 36053
  %35 = zext i1 %34 to i8
  store i8 %35, ptr %9, align 8
  %36 = load ptr, ptr @__glewBindFramebuffer, align 8
  call void %36(i32 noundef 36160, i32 noundef 0)
  %37 = load i8, ptr %9, align 8
  %38 = and i8 %37, 1
  %39 = icmp ne i8 %38, 0
  br label %40

40:                                               ; preds = %8, %12, %5
  %.0 = phi i1 [ %39, %12 ], [ false, %5 ], [ true, %8 ]
  ret i1 %.0
}